target datalayout = "e-m:e-p270:32:32-p271:32:32-p272:64:64-i64:64-i128:128-f80:128-n8:16:32:64-S128"
target triple = "x86_64-unknown-linux-gnu"

%"class.(anonymous namespace)::label_hasher" = type { %class.svector.1 }
%class.svector.1 = type { %class.vector.2 }
%class.vector.2 = type { ptr }
%class.ast = type { i32, i24, i32, i32 }

; Function Attrs: mustprogress nounwind uwtable
define linkonce_odr hidden noundef i32 @_ZNK6vectorIaLb0EjE8capacityEv(ptr noundef nonnull align 8 dereferenceable(8) %this) #4 comdat align 2 {
entry:
  %retval = alloca i32, align 4
  %this.addr = alloca ptr, align 8
  store ptr %this, ptr %this.addr, align 8
  %this1 = load ptr, ptr %this.addr, align 8
  %m_data = getelementptr inbounds %class.vector.2, ptr %this1, i32 0, i32 0
  %0 = load ptr, ptr %m_data, align 8
  %cmp = icmp eq ptr %0, null
  br i1 %cmp, label %if.then, label %if.end

if.then:                                          ; preds = %entry
  store i32 0, ptr %retval, align 4
  br label %return

if.end:                                           ; preds = %entry
  %m_data2 = getelementptr inbounds %class.vector.2, ptr %this1, i32 0, i32 0
  %1 = load ptr, ptr %m_data2, align 8
  %arrayidx = getelementptr inbounds i32, ptr %1, i64 -2
  %2 = load i32, ptr %arrayidx, align 4
  store i32 %2, ptr %retval, align 4
  br label %return

return:                                           ; preds = %if.end, %if.then
  %3 = load i32, ptr %retval, align 4
  ret i32 %3
}

; Function Attrs: mustprogress nounwind uwtable
define linkonce_odr hidden void @_ZN6vectorIaLb0EjE6shrinkEj(ptr noundef nonnull align 8 dereferenceable(8) %this, i32 noundef %s) #4 comdat align 2 {
entry:
  %this.addr = alloca ptr, align 8
  %s.addr = alloca i32, align 4
  store ptr %this, ptr %this.addr, align 8
  store i32 %s, ptr %s.addr, align 4
  %this1 = load ptr, ptr %this.addr, align 8
  %m_data = getelementptr inbounds %class.vector.2, ptr %this1, i32 0, i32 0
  %0 = load ptr, ptr %m_data, align 8
  %tobool = icmp ne ptr %0, null
  br i1 %tobool, label %if.then, label %if.else

if.then:                                          ; preds = %entry
  %1 = load i32, ptr %s.addr, align 4
  %m_data2 = getelementptr inbounds %class.vector.2, ptr %this1, i32 0, i32 0
  %2 = load ptr, ptr %m_data2, align 8
  %arrayidx = getelementptr inbounds i32, ptr %2, i64 -1
  store i32 %1, ptr %arrayidx, align 4
  br label %if.end

if.else:                                          ; preds = %entry
  br label %if.end

if.end:                                           ; preds = %if.else, %if.then
  ret void
}

; Function Attrs: mustprogress nounwind uwtable
define linkonce_odr hidden noundef i32 @_ZNK3ast6get_idEv(ptr noundef nonnull align 4 dereferenceable(16) %this) #4 comdat align 2 {
entry:
  %this.addr = alloca ptr, align 8
  store ptr %this, ptr %this.addr, align 8
  %this1 = load ptr, ptr %this.addr, align 8
  %m_id = getelementptr inbounds %class.ast, ptr %this1, i32 0, i32 0
  %0 = load i32, ptr %m_id, align 4
  ret i32 %0
}

; Function Attrs: mustprogress nounwind uwtable
define internal void @_ZN12_GLOBAL__N_112label_hasher11mk_lbl_hashEj(ptr noundef nonnull align 8 dereferenceable(8) %this, i32 noundef %lbl_id) #4 align 2 {
entry:
  %this.addr = alloca ptr, align 8
  %lbl_id.addr = alloca i32, align 4
  %a = alloca i32, align 4
  %b = alloca i32, align 4
  %c = alloca i32, align 4
  store ptr %this, ptr %this.addr, align 8
  store i32 %lbl_id, ptr %lbl_id.addr, align 4
  %this1 = load ptr, ptr %this.addr, align 8
  store i32 17, ptr %a, align 4
  store i32 3, ptr %b, align 4
  %0 = load i32, ptr %lbl_id.addr, align 4
  store i32 %0, ptr %c, align 4
  %1 = load i32, ptr %b, align 4
  %2 = load i32, ptr %a, align 4
  %sub = sub i32 %2, %1
  store i32 %sub, ptr %a, align 4
  %3 = load i32, ptr %c, align 4
  %4 = load i32, ptr %a, align 4
  %sub2 = sub i32 %4, %3
  store i32 %sub2, ptr %a, align 4
  %5 = load i32, ptr %c, align 4
  %shr = lshr i32 %5, 13
  %6 = load i32, ptr %a, align 4
  %xor = xor i32 %6, %shr
  store i32 %xor, ptr %a, align 4
  %7 = load i32, ptr %c, align 4
  %8 = load i32, ptr %b, align 4
  %sub3 = sub i32 %8, %7
  store i32 %sub3, ptr %b, align 4
  %9 = load i32, ptr %a, align 4
  %10 = load i32, ptr %b, align 4
  %sub4 = sub i32 %10, %9
  store i32 %sub4, ptr %b, align 4
  %11 = load i32, ptr %a, align 4
  %shl = shl i32 %11, 8
  %12 = load i32, ptr %b, align 4
  %xor5 = xor i32 %12, %shl
  store i32 %xor5, ptr %b, align 4
  %13 = load i32, ptr %a, align 4
  %14 = load i32, ptr %c, align 4
  %sub6 = sub i32 %14, %13
  store i32 %sub6, ptr %c, align 4
  %15 = load i32, ptr %b, align 4
  %16 = load i32, ptr %c, align 4
  %sub7 = sub i32 %16, %15
  store i32 %sub7, ptr %c, align 4
  %17 = load i32, ptr %b, align 4
  %shr8 = lshr i32 %17, 13
  %18 = load i32, ptr %c, align 4
  %xor9 = xor i32 %18, %shr8
  store i32 %xor9, ptr %c, align 4
  %19 = load i32, ptr %b, align 4
  %20 = load i32, ptr %a, align 4
  %sub10 = sub i32 %20, %19
  store i32 %sub10, ptr %a, align 4
  %21 = load i32, ptr %c, align 4
  %22 = load i32, ptr %a, align 4
  %sub11 = sub i32 %22, %21
  store i32 %sub11, ptr %a, align 4
  %23 = load i32, ptr %c, align 4
  %shr12 = lshr i32 %23, 12
  %24 = load i32, ptr %a, align 4
  %xor13 = xor i32 %24, %shr12
  store i32 %xor13, ptr %a, align 4
  %25 = load i32, ptr %c, align 4
  %26 = load i32, ptr %b, align 4
  %sub14 = sub i32 %26, %25
  store i32 %sub14, ptr %b, align 4
  %27 = load i32, ptr %a, align 4
  %28 = load i32, ptr %b, align 4
  %sub15 = sub i32 %28, %27
  store i32 %sub15, ptr %b, align 4
  %29 = load i32, ptr %a, align 4
  %shl16 = shl i32 %29, 16
  %30 = load i32, ptr %b, align 4
  %xor17 = xor i32 %30, %shl16
  store i32 %xor17, ptr %b, align 4
  %31 = load i32, ptr %a, align 4
  %32 = load i32, ptr %c, align 4
  %sub18 = sub i32 %32, %31
  store i32 %sub18, ptr %c, align 4
  %33 = load i32, ptr %b, align 4
  %34 = load i32, ptr %c, align 4
  %sub19 = sub i32 %34, %33
  store i32 %sub19, ptr %c, align 4
  %35 = load i32, ptr %b, align 4
  %shr20 = lshr i32 %35, 5
  %36 = load i32, ptr %c, align 4
  %xor21 = xor i32 %36, %shr20
  store i32 %xor21, ptr %c, align 4
  %37 = load i32, ptr %b, align 4
  %38 = load i32, ptr %a, align 4
  %sub22 = sub i32 %38, %37
  store i32 %sub22, ptr %a, align 4
  %39 = load i32, ptr %c, align 4
  %40 = load i32, ptr %a, align 4
  %sub23 = sub i32 %40, %39
  store i32 %sub23, ptr %a, align 4
  %41 = load i32, ptr %c, align 4
  %shr24 = lshr i32 %41, 3
  %42 = load i32, ptr %a, align 4
  %xor25 = xor i32 %42, %shr24
  store i32 %xor25, ptr %a, align 4
  %43 = load i32, ptr %c, align 4
  %44 = load i32, ptr %b, align 4
  %sub26 = sub i32 %44, %43
  store i32 %sub26, ptr %b, align 4
  %45 = load i32, ptr %a, align 4
  %46 = load i32, ptr %b, align 4
  %sub27 = sub i32 %46, %45
  store i32 %sub27, ptr %b, align 4
  %47 = load i32, ptr %a, align 4
  %shl28 = shl i32 %47, 10
  %48 = load i32, ptr %b, align 4
  %xor29 = xor i32 %48, %shl28
  store i32 %xor29, ptr %b, align 4
  %49 = load i32, ptr %a, align 4
  %50 = load i32, ptr %c, align 4
  %sub30 = sub i32 %50, %49
  store i32 %sub30, ptr %c, align 4
  %51 = load i32, ptr %b, align 4
  %52 = load i32, ptr %c, align 4
  %sub31 = sub i32 %52, %51
  store i32 %sub31, ptr %c, align 4
  %53 = load i32, ptr %b, align 4
  %shr32 = lshr i32 %53, 15
  %54 = load i32, ptr %c, align 4
  %xor33 = xor i32 %54, %shr32
  store i32 %xor33, ptr %c, align 4
  %55 = load i32, ptr %c, align 4
  %and = and i32 %55, 63
  %conv = trunc i32 %and to i8
  %m_lbl2hash = getelementptr inbounds %"class.(anonymous namespace)::label_hasher", ptr %this1, i32 0, i32 0
  %56 = load i32, ptr %lbl_id.addr, align 4
  %call = call noundef nonnull align 1 dereferenceable(1) ptr @_ZN6vectorIaLb0EjEixEj(ptr noundef nonnull align 8 dereferenceable(8) %m_lbl2hash, i32 noundef %56)
  store i8 %conv, ptr %call, align 1
  ret void
}

; Function Attrs: mustprogress nounwind uwtable
define linkonce_odr hidden noundef nonnull align 1 dereferenceable(1) ptr @_ZN6vectorIaLb0EjEixEj(ptr noundef nonnull align 8 dereferenceable(8) %this, i32 noundef %idx) #4 comdat align 2 {
entry:
  %this.addr = alloca ptr, align 8
  %idx.addr = alloca i32, align 4
  store ptr %this, ptr %this.addr, align 8
  store i32 %idx, ptr %idx.addr, align 4
  %this1 = load ptr, ptr %this.addr, align 8
  %m_data = getelementptr inbounds %class.vector.2, ptr %this1, i32 0, i32 0
  %0 = load ptr, ptr %m_data, align 8
  %1 = load i32, ptr %idx.addr, align 4
  %idxprom = zext i32 %1 to i64
  %arrayidx = getelementptr inbounds i8, ptr %0, i64 %idxprom
  ret ptr %arrayidx
}

; Function Attrs: mustprogress uwtable
define linkonce_odr hidden void @_ZN6vectorIaLb0EjE6resizeIiEEvjT_z(ptr noundef nonnull align 8 dereferenceable(8) %this, i32 noundef %s, i32 noundef %args, ...) #5 comdat align 2 {
entry:
  %this.addr = alloca ptr, align 8
  %s.addr = alloca i32, align 4
  %args.addr = alloca i32, align 4
  %sz = alloca i32, align 4
  %it = alloca ptr, align 8
  %end = alloca ptr, align 8
  store ptr %this, ptr %this.addr, align 8
  store i32 %s, ptr %s.addr, align 4
  store i32 %args, ptr %args.addr, align 4
  %this1 = load ptr, ptr %this.addr, align 8
  %call = call noundef i32 @_ZNK6vectorIaLb0EjE4sizeEv(ptr noundef nonnull align 8 dereferenceable(8) %this1)
  store i32 %call, ptr %sz, align 4
  %0 = load i32, ptr %s.addr, align 4
  %1 = load i32, ptr %sz, align 4
  %cmp = icmp ule i32 %0, %1
  br i1 %cmp, label %if.then, label %if.end

if.then:                                          ; preds = %entry
  %2 = load i32, ptr %s.addr, align 4
  call void @_ZN6vectorIaLb0EjE6shrinkEj(ptr noundef nonnull align 8 dereferenceable(8) %this1, i32 noundef %2)
  br label %for.end

if.end:                                           ; preds = %entry
  br label %while.cond

while.cond:                                       ; preds = %while.body, %if.end
  %3 = load i32, ptr %s.addr, align 4
  %call2 = call noundef i32 @_ZNK6vectorIaLb0EjE8capacityEv(ptr noundef nonnull align 8 dereferenceable(8) %this1)
  %cmp3 = icmp ugt i32 %3, %call2
  br i1 %cmp3, label %while.body, label %while.end

while.body:                                       ; preds = %while.cond
  call void @_ZN6vectorIaLb0EjE13expand_vectorEv(ptr noundef nonnull align 8 dereferenceable(8) %this1)
  br label %while.cond, !llvm.loop !83

while.end:                                        ; preds = %while.cond
  %4 = load i32, ptr %s.addr, align 4
  %m_data = getelementptr inbounds %class.vector.2, ptr %this1, i32 0, i32 0
  %5 = load ptr, ptr %m_data, align 8
  %arrayidx = getelementptr inbounds i32, ptr %5, i64 -1
  store i32 %4, ptr %arrayidx, align 4
  %m_data4 = getelementptr inbounds %class.vector.2, ptr %this1, i32 0, i32 0
  %6 = load ptr, ptr %m_data4, align 8
  %7 = load i32, ptr %sz, align 4
  %idx.ext = zext i32 %7 to i64
  %add.ptr = getelementptr inbounds i8, ptr %6, i64 %idx.ext
  store ptr %add.ptr, ptr %it, align 8
  %m_data5 = getelementptr inbounds %class.vector.2, ptr %this1, i32 0, i32 0
  %8 = load ptr, ptr %m_data5, align 8
  %9 = load i32, ptr %s.addr, align 4
  %idx.ext6 = zext i32 %9 to i64
  %add.ptr7 = getelementptr inbounds i8, ptr %8, i64 %idx.ext6
  store ptr %add.ptr7, ptr %end, align 8
  br label %for.cond

for.cond:                                         ; preds = %for.inc, %while.end
  %10 = load ptr, ptr %it, align 8
  %11 = load ptr, ptr %end, align 8
  %cmp8 = icmp ne ptr %10, %11
  br i1 %cmp8, label %for.body, label %for.end

for.body:                                         ; preds = %for.cond
  %12 = load ptr, ptr %it, align 8
  %13 = load i32, ptr %args.addr, align 4
  %conv = trunc i32 %13 to i8
  store i8 %conv, ptr %12, align 1
  br label %for.inc

for.inc:                                          ; preds = %for.body
  %14 = load ptr, ptr %it, align 8
  %incdec.ptr = getelementptr inbounds i8, ptr %14, i32 1
  store ptr %incdec.ptr, ptr %it, align 8
  br label %for.cond, !llvm.loop !84

for.end:                                          ; preds = %for.cond, %if.then
  ret void
}

; Function Attrs: mustprogress nounwind uwtable
define linkonce_odr hidden noundef i32 @_ZNK6vectorIaLb0EjE4sizeEv(ptr noundef nonnull align 8 dereferenceable(8) %this) #4 comdat align 2 {
entry:
  %retval = alloca i32, align 4
  %this.addr = alloca ptr, align 8
  store ptr %this, ptr %this.addr, align 8
  %this1 = load ptr, ptr %this.addr, align 8
  %m_data = getelementptr inbounds %class.vector.2, ptr %this1, i32 0, i32 0
  %0 = load ptr, ptr %m_data, align 8
  %cmp = icmp eq ptr %0, null
  br i1 %cmp, label %if.then, label %if.end

if.then:                                          ; preds = %entry
  store i32 0, ptr %retval, align 4
  br label %return

if.end:                                           ; preds = %entry
  %m_data2 = getelementptr inbounds %class.vector.2, ptr %this1, i32 0, i32 0
  %1 = load ptr, ptr %m_data2, align 8
  %arrayidx = getelementptr inbounds i32, ptr %1, i64 -1
  %2 = load i32, ptr %arrayidx, align 4
  store i32 %2, ptr %retval, align 4
  br label %return

return:                                           ; preds = %if.end, %if.then
  %3 = load i32, ptr %retval, align 4
  ret i32 %3
}

; Function Attrs: mustprogress nounwind uwtable
define linkonce_odr hidden noundef i32 @_ZNK4decl12get_small_idEv(ptr noundef nonnull align 8 dereferenceable(32) %this) #4 comdat align 2 {
entry:
  %this.addr = alloca ptr, align 8
  store ptr %this, ptr %this.addr, align 8
  %this1 = load ptr, ptr %this.addr, align 8
  %call = call noundef i32 @_ZNK3ast6get_idEv(ptr noundef nonnull align 4 dereferenceable(16) %this1)
  %sub = sub i32 %call, -2147483648
  ret i32 %sub
}

; Function Attrs: mustprogress uwtable
define internal noundef zeroext i8 @_ZN12_GLOBAL__N_112label_hasherclEP9func_decl(ptr noundef nonnull align 8 dereferenceable(8) %this, ptr noundef %lbl) #5 align 2 {
entry:
  %this.addr = alloca ptr, align 8
  %lbl.addr = alloca ptr, align 8
  %lbl_id = alloca i32, align 4
  store ptr %this, ptr %this.addr, align 8
  store ptr %lbl, ptr %lbl.addr, align 8
  %this1 = load ptr, ptr %this.addr, align 8
  %0 = load ptr, ptr %lbl.addr, align 8
  %call = call noundef i32 @_ZNK4decl12get_small_idEv(ptr noundef nonnull align 8 dereferenceable(32) %0)
  store i32 %call, ptr %lbl_id, align 4
  %1 = load i32, ptr %lbl_id, align 4
  %m_lbl2hash = getelementptr inbounds %"class.(anonymous namespace)::label_hasher", ptr %this1, i32 0, i32 0
  %call2 = call noundef i32 @_ZNK6vectorIaLb0EjE4sizeEv(ptr noundef nonnull align 8 dereferenceable(8) %m_lbl2hash)
  %cmp = icmp uge i32 %1, %call2
  br i1 %cmp, label %if.then, label %if.end

if.then:                                          ; preds = %entry
  %m_lbl2hash3 = getelementptr inbounds %"class.(anonymous namespace)::label_hasher", ptr %this1, i32 0, i32 0
  %2 = load i32, ptr %lbl_id, align 4
  %add = add i32 %2, 1
  call void (ptr, i32, i32, ...) @_ZN6vectorIaLb0EjE6resizeIiEEvjT_z(ptr noundef nonnull align 8 dereferenceable(8) %m_lbl2hash3, i32 noundef %add, i32 noundef -1)
  br label %if.end

if.end:                                           ; preds = %if.then, %entry
  %m_lbl2hash4 = getelementptr inbounds %"class.(anonymous namespace)::label_hasher", ptr %this1, i32 0, i32 0
  %3 = load i32, ptr %lbl_id, align 4
  %call5 = call noundef nonnull align 1 dereferenceable(1) ptr @_ZN6vectorIaLb0EjEixEj(ptr noundef nonnull align 8 dereferenceable(8) %m_lbl2hash4, i32 noundef %3)
  %4 = load i8, ptr %call5, align 1
  %conv = sext i8 %4 to i32
  %cmp6 = icmp eq i32 %conv, -1
  br i1 %cmp6, label %if.then7, label %if.end8

if.then7:                                         ; preds = %if.end
  %5 = load i32, ptr %lbl_id, align 4
  call void @_ZN12_GLOBAL__N_112label_hasher11mk_lbl_hashEj(ptr noundef nonnull align 8 dereferenceable(8) %this1, i32 noundef %5)
  br label %if.end8

if.end8:                                          ; preds = %if.then7, %if.end
  %m_lbl2hash9 = getelementptr inbounds %"class.(anonymous namespace)::label_hasher", ptr %this1, i32 0, i32 0
  %6 = load i32, ptr %lbl_id, align 4
  %call10 = call noundef nonnull align 1 dereferenceable(1) ptr @_ZN6vectorIaLb0EjEixEj(ptr noundef nonnull align 8 dereferenceable(8) %m_lbl2hash9, i32 noundef %6)
  %7 = load i8, ptr %call10, align 1
  ret i8 %7
}