; Function Attrs: mustprogress uwtable
define internal fastcc noundef zeroext i8 @_ZN12_GLOBAL__N_112label_hasherclEP9func_decl(ptr noundef nonnull align 8 dereferenceable(8) %this, i32 %lbl.0.val) unnamed_addr #3 align 2 {
entry:
  %sub.i = xor i32 %lbl.0.val, -2147483648
  %0 = load ptr, ptr %this, align 8
  %cmp.i = icmp eq ptr %0, null
  br i1 %cmp.i, label %_ZNK6vectorIaLb0EjE4sizeEv.exit.i, label %_ZNK6vectorIaLb0EjE4sizeEv.exit

_ZNK6vectorIaLb0EjE4sizeEv.exit:                  ; preds = %entry
  %arrayidx.i = getelementptr inbounds i8, ptr %0, i64 -4
  %1 = load i32, ptr %arrayidx.i, align 4
  %cmp.not = icmp ult i32 %sub.i, %1
  br i1 %cmp.not, label %if.end, label %_ZNK6vectorIaLb0EjE4sizeEv.exit.thread.i

_ZNK6vectorIaLb0EjE4sizeEv.exit.i:                ; preds = %entry
  %add3 = add i32 %lbl.0.val, -2147483647
  %cmp.not.not.i = icmp eq i32 %add3, 0
  br i1 %cmp.not.not.i, label %if.end, label %while.cond.i.preheader

_ZNK6vectorIaLb0EjE4sizeEv.exit.thread.i:         ; preds = %_ZNK6vectorIaLb0EjE4sizeEv.exit
  %add = add i32 %lbl.0.val, -2147483647
  %cmp.not15.i = icmp ult i32 %1, %add
  br i1 %cmp.not15.i, label %while.cond.i.preheader, label %if.then.i.i

while.cond.i.preheader:                           ; preds = %_ZNK6vectorIaLb0EjE4sizeEv.exit.i, %_ZNK6vectorIaLb0EjE4sizeEv.exit.thread.i
  %add5.ph = phi i32 [ %add, %_ZNK6vectorIaLb0EjE4sizeEv.exit.thread.i ], [ %add3, %_ZNK6vectorIaLb0EjE4sizeEv.exit.i ]
  %.ph = phi ptr [ %0, %_ZNK6vectorIaLb0EjE4sizeEv.exit.thread.i ], [ null, %_ZNK6vectorIaLb0EjE4sizeEv.exit.i ]
  %retval.0.i16.i.ph = phi i32 [ %1, %_ZNK6vectorIaLb0EjE4sizeEv.exit.thread.i ], [ 0, %_ZNK6vectorIaLb0EjE4sizeEv.exit.i ]
  br label %while.cond.i

if.then.i.i:                                      ; preds = %_ZNK6vectorIaLb0EjE4sizeEv.exit.thread.i
  store i32 %add, ptr %arrayidx.i, align 4
  br label %if.end

while.cond.i:                                     ; preds = %while.cond.i.preheader, %while.body.i
  %2 = phi ptr [ %.pr.pre.i, %while.body.i ], [ %.ph, %while.cond.i.preheader ]
  %cmp.i10.i = icmp eq ptr %2, null
  br i1 %cmp.i10.i, label %_ZNK6vectorIaLb0EjE8capacityEv.exit.i, label %if.end.i11.i

if.end.i11.i:                                     ; preds = %while.cond.i
  %arrayidx.i12.i = getelementptr inbounds i8, ptr %2, i64 -8
  %3 = load i32, ptr %arrayidx.i12.i, align 4
  br label %_ZNK6vectorIaLb0EjE8capacityEv.exit.i

_ZNK6vectorIaLb0EjE8capacityEv.exit.i:            ; preds = %if.end.i11.i, %while.cond.i
  %retval.0.i13.i = phi i32 [ %3, %if.end.i11.i ], [ 0, %while.cond.i ]
  %cmp3.i = icmp ult i32 %retval.0.i13.i, %add5.ph
  br i1 %cmp3.i, label %while.body.i, label %while.end.i

while.body.i:                                     ; preds = %_ZNK6vectorIaLb0EjE8capacityEv.exit.i
  tail call void @_ZN6vectorIaLb0EjE13expand_vectorEv(ptr noundef nonnull align 8 dereferenceable(8) %this)
  %.pr.pre.i = load ptr, ptr %this, align 8
  br label %while.cond.i, !llvm.loop !35

while.end.i:                                      ; preds = %_ZNK6vectorIaLb0EjE8capacityEv.exit.i
  %arrayidx.i5 = getelementptr inbounds i8, ptr %2, i64 -4
  store i32 %add5.ph, ptr %arrayidx.i5, align 4
  %cmp8.not17.i = icmp eq i32 %retval.0.i16.i.ph, %add5.ph
  br i1 %cmp8.not17.i, label %if.end, label %for.body.lr.ph.i

for.body.lr.ph.i:                                 ; preds = %while.end.i
  %idx.ext6.i = zext i32 %add5.ph to i64
  %4 = load ptr, ptr %this, align 8
  %idx.ext.i = zext i32 %retval.0.i16.i.ph to i64
  %add.ptr.i = getelementptr i8, ptr %4, i64 %idx.ext.i
  %5 = sub nsw i64 %idx.ext6.i, %idx.ext.i
  tail call void @llvm.memset.p0.i64(ptr align 1 %add.ptr.i, i8 -1, i64 %5, i1 false)
  br label %if.end

if.end:                                           ; preds = %for.body.lr.ph.i, %while.end.i, %if.then.i.i, %_ZNK6vectorIaLb0EjE4sizeEv.exit.i, %_ZNK6vectorIaLb0EjE4sizeEv.exit
  %6 = load ptr, ptr %this, align 8
  %idxprom.i = zext i32 %sub.i to i64
  %arrayidx.i6 = getelementptr inbounds i8, ptr %6, i64 %idxprom.i
  %7 = load i8, ptr %arrayidx.i6, align 1
  %cmp6 = icmp eq i8 %7, -1
  br i1 %cmp6, label %if.then7, label %if.end8

if.then7:                                         ; preds = %if.end
  %sub2.i = sub i32 14, %sub.i
  %shr.i = lshr i32 %sub.i, 13
  %xor.i = xor i32 %sub2.i, %shr.i
  %8 = add i32 %sub.i, %xor.i
  %sub4.i = sub i32 3, %8
  %shl.i = shl i32 %xor.i, 8
  %xor5.i = xor i32 %sub4.i, %shl.i
  %9 = add i32 %xor.i, %xor5.i
  %sub7.i = sub i32 %sub.i, %9
  %shr8.i = lshr i32 %xor5.i, 13
  %xor9.i = xor i32 %sub7.i, %shr8.i
  %10 = add i32 %xor5.i, %xor9.i
  %sub11.i = sub i32 %xor.i, %10
  %shr12.i = lshr i32 %xor9.i, 12
  %xor13.i = xor i32 %sub11.i, %shr12.i
  %11 = add i32 %xor9.i, %xor13.i
  %sub15.i = sub i32 %xor5.i, %11
  %shl16.i = shl i32 %xor13.i, 16
  %xor17.i = xor i32 %sub15.i, %shl16.i
  %12 = add i32 %xor13.i, %xor17.i
  %sub19.i = sub i32 %xor9.i, %12
  %shr20.i = lshr i32 %xor17.i, 5
  %xor21.i = xor i32 %sub19.i, %shr20.i
  %13 = add i32 %xor17.i, %xor21.i
  %sub23.i = sub i32 %xor13.i, %13
  %shr24.i = lshr i32 %xor21.i, 3
  %xor25.i = xor i32 %sub23.i, %shr24.i
  %14 = add i32 %xor21.i, %xor25.i
  %sub27.i = sub i32 %xor17.i, %14
  %shl28.i = shl i32 %xor25.i, 10
  %xor29.i = xor i32 %sub27.i, %shl28.i
  %15 = add i32 %xor25.i, %sub27.i
  %sub31.i = sub i32 %xor21.i, %15
  %shr32.i = lshr i32 %xor29.i, 15
  %xor33.i = xor i32 %shr32.i, %sub31.i
  %16 = trunc i32 %xor33.i to i8
  %conv.i = and i8 %16, 63
  store i8 %conv.i, ptr %arrayidx.i6, align 1
  %.pre = load ptr, ptr %this, align 8
  %arrayidx.i9.phi.trans.insert = getelementptr inbounds i8, ptr %.pre, i64 %idxprom.i
  %.pre14 = load i8, ptr %arrayidx.i9.phi.trans.insert, align 1
  br label %if.end8

if.end8:                                          ; preds = %if.then7, %if.end
  %17 = phi i8 [ %.pre14, %if.then7 ], [ %7, %if.end ]
  ret i8 %17
}